; Function Attrs: inlinehint nounwind uwtable
define internal fastcc ptr @pgstat_entry_ref_hash_create(ptr noundef %0) unnamed_addr #9 {
  %2 = tail call ptr @MemoryContextAllocZero(ptr noundef %0, i64 noundef 48) #15
  %3 = getelementptr inbounds nuw i8, ptr %2, i64 32
  store ptr %0, ptr %3, align 8
  %4 = getelementptr inbounds nuw i8, ptr %2, i64 40
  store ptr null, ptr %4, align 8
  %5 = tail call ptr @MemoryContextAllocExtended(ptr noundef %0, i64 noundef 8192, i32 noundef 5) #15
  %6 = getelementptr inbounds nuw i8, ptr %2, i64 24
  store ptr %5, ptr %6, align 8
  store i64 256, ptr %2, align 8
  %7 = getelementptr inbounds nuw i8, ptr %2, i64 12
  store i32 255, ptr %7, align 4
  %8 = getelementptr inbounds nuw i8, ptr %2, i64 16
  store i32 230, ptr %8, align 8
  ret ptr %2
}